; Function Attrs: mustprogress nounwind uwtable
define hidden noundef ptr @_ZN8IdealKit11new_cvstateEv(ptr nocapture noundef nonnull readonly align 8 dereferenceable(64) %0) local_unnamed_addr #0 align 2 {
  %2 = getelementptr inbounds i8, ptr %0, i64 32
  %3 = load i32, ptr %2, align 8
  %4 = tail call align 8 ptr @llvm.threadlocal.address.p0(ptr align 8 @_ZN6Thread12_thr_currentE)
  %5 = load ptr, ptr %4, align 8
  %6 = getelementptr inbounds i8, ptr %5, i64 1808
  %7 = load ptr, ptr %6, align 8
  %8 = getelementptr inbounds i8, ptr %7, i64 128
  %9 = load ptr, ptr %8, align 8
  %10 = getelementptr inbounds i8, ptr %9, i64 728
  %11 = load ptr, ptr %10, align 8
  %12 = getelementptr inbounds i8, ptr %11, i64 40
  %13 = load ptr, ptr %12, align 8
  %14 = getelementptr inbounds i8, ptr %11, i64 32
  %15 = load ptr, ptr %14, align 8
  %16 = ptrtoint ptr %13 to i64
  %17 = ptrtoint ptr %15 to i64
  %18 = sub i64 %16, %17
  %.not.i.i.i = icmp ult i64 %18, 56
  br i1 %.not.i.i.i, label %21, label %19

19:                                               ; preds = %1
  %20 = getelementptr inbounds i8, ptr %15, i64 56
  store ptr %20, ptr %14, align 8
  br label %_ZN4NodenwEm.exit

21:                                               ; preds = %1
  %22 = tail call noundef ptr @_ZN5Arena4growEmN17AllocFailStrategy13AllocFailEnumE(ptr noundef nonnull align 8 dereferenceable(48) %11, i64 noundef 56, i32 noundef 0) #6
  br label %_ZN4NodenwEm.exit

_ZN4NodenwEm.exit:                                ; preds = %19, %21
  %.0.i.i.i = phi ptr [ %15, %19 ], [ %22, %21 ]
  %23 = icmp eq ptr %.0.i.i.i, null
  br i1 %23, label %26, label %24

24:                                               ; preds = %_ZN4NodenwEm.exit
  %25 = add i32 %3, 6
  tail call void @_ZN4NodeC1Ej(ptr noundef nonnull align 8 dereferenceable(52) %.0.i.i.i, i32 noundef %25) #6
  br label %26

26:                                               ; preds = %24, %_ZN4NodenwEm.exit
  ret ptr %.0.i.i.i
}